; ModuleID = '60/1073.c'
source_filename = "60/1073.c"
target datalayout = "e-m:e-p270:32:32-p271:32:32-p272:64:64-i64:64-f80:128-n8:16:32:64-S128"
target triple = "x86_64-pc-linux-gnu"

@.str = private unnamed_addr constant [3 x i8] c"%d\00", align 1
@.str.1 = private unnamed_addr constant [7 x i8] c"%d %d\0A\00", align 1
@.str.2 = private unnamed_addr constant [7 x i8] c"empty\0A\00", align 1

; Function Attrs: noinline nounwind uwtable
define dso_local i32 @main(i32 %0, i8** %1) #0 {
  %3 = alloca i32, align 4
  %4 = alloca i32, align 4
  %5 = alloca i8**, align 8
  %6 = alloca i32, align 4
  %7 = alloca i32, align 4
  %8 = alloca i32, align 4
  %9 = alloca i32, align 4
  %10 = alloca i32, align 4
  %11 = alloca [100000 x i32], align 16
  %12 = alloca i32, align 4
  store i32 0, i32* %3, align 4
  store i32 %0, i32* %4, align 4
  store i8** %1, i8*** %5, align 8
  %13 = call i32 (i8*, ...) @__isoc99_scanf(i8* getelementptr inbounds ([3 x i8], [3 x i8]* @.str, i64 0, i64 0), i32* %8)
  store i32 0, i32* %9, align 4
  br label %14

14:                                               ; preds = %22, %2
  %15 = load i32, i32* %9, align 4
  %16 = load i32, i32* %8, align 4
  %17 = icmp slt i32 %15, %16
  br i1 %17, label %18, label %25

18:                                               ; preds = %14
  %19 = load i32, i32* %9, align 4
  %20 = sext i32 %19 to i64
  %21 = getelementptr inbounds [100000 x i32], [100000 x i32]* %11, i64 0, i64 %20
  store i32 0, i32* %21, align 4
  br label %22

22:                                               ; preds = %18
  %23 = load i32, i32* %9, align 4
  %24 = add nsw i32 %23, 1
  store i32 %24, i32* %9, align 4
  br label %14

25:                                               ; preds = %14
  store i32 2, i32* %9, align 4
  store i32 0, i32* %7, align 4
  store i32 0, i32* %6, align 4
  br label %26

26:                                               ; preds = %62, %25
  %27 = load i32, i32* %9, align 4
  %28 = load i32, i32* %8, align 4
  %29 = icmp sle i32 %27, %28
  br i1 %29, label %30, label %65

30:                                               ; preds = %26
  store i32 2, i32* %10, align 4
  br label %31

31:                                               ; preds = %49, %30
  %32 = load i32, i32* %10, align 4
  %33 = load i32, i32* %9, align 4
  %34 = sub nsw i32 %33, 1
  %35 = icmp sle i32 %32, %34
  br i1 %35, label %36, label %52

36:                                               ; preds = %31
  %37 = load i32, i32* %9, align 4
  %38 = load i32, i32* %10, align 4
  %39 = srem i32 %37, %38
  %40 = icmp eq i32 %39, 0
  br i1 %40, label %41, label %42

41:                                               ; preds = %36
  store i32 1, i32* %6, align 4
  br label %52

42:                                               ; preds = %36
  %43 = load i32, i32* %9, align 4
  %44 = load i32, i32* %10, align 4
  %45 = srem i32 %43, %44
  %46 = icmp ne i32 %45, 0
  br i1 %46, label %47, label %48

47:                                               ; preds = %42
  store i32 0, i32* %6, align 4
  br label %48

48:                                               ; preds = %47, %42
  br label %49

49:                                               ; preds = %48
  %50 = load i32, i32* %10, align 4
  %51 = add nsw i32 %50, 1
  store i32 %51, i32* %10, align 4
  br label %31

52:                                               ; preds = %41, %31
  %53 = load i32, i32* %6, align 4
  %54 = icmp eq i32 0, %53
  br i1 %54, label %55, label %62

55:                                               ; preds = %52
  %56 = load i32, i32* %9, align 4
  %57 = load i32, i32* %7, align 4
  %58 = sext i32 %57 to i64
  %59 = getelementptr inbounds [100000 x i32], [100000 x i32]* %11, i64 0, i64 %58
  store i32 %56, i32* %59, align 4
  %60 = load i32, i32* %7, align 4
  %61 = add nsw i32 %60, 1
  store i32 %61, i32* %7, align 4
  br label %62

62:                                               ; preds = %55, %52
  %63 = load i32, i32* %9, align 4
  %64 = add nsw i32 %63, 1
  store i32 %64, i32* %9, align 4
  br label %26

65:                                               ; preds = %26
  store i32 0, i32* %12, align 4
  store i32 0, i32* %9, align 4
  br label %66

66:                                               ; preds = %94, %65
  %67 = load i32, i32* %9, align 4
  %68 = load i32, i32* %7, align 4
  %69 = icmp sle i32 %67, %68
  br i1 %69, label %70, label %97

70:                                               ; preds = %66
  %71 = load i32, i32* %9, align 4
  %72 = sext i32 %71 to i64
  %73 = getelementptr inbounds [100000 x i32], [100000 x i32]* %11, i64 0, i64 %72
  %74 = load i32, i32* %73, align 4
  %75 = load i32, i32* %9, align 4
  %76 = add nsw i32 %75, 1
  %77 = sext i32 %76 to i64
  %78 = getelementptr inbounds [100000 x i32], [100000 x i32]* %11, i64 0, i64 %77
  %79 = load i32, i32* %78, align 4
  %80 = sub nsw i32 %79, 2
  %81 = icmp eq i32 %74, %80
  br i1 %81, label %82, label %93

82:                                               ; preds = %70
  %83 = load i32, i32* %9, align 4
  %84 = sext i32 %83 to i64
  %85 = getelementptr inbounds [100000 x i32], [100000 x i32]* %11, i64 0, i64 %84
  %86 = load i32, i32* %85, align 4
  %87 = load i32, i32* %9, align 4
  %88 = add nsw i32 %87, 1
  %89 = sext i32 %88 to i64
  %90 = getelementptr inbounds [100000 x i32], [100000 x i32]* %11, i64 0, i64 %89
  %91 = load i32, i32* %90, align 4
  %92 = call i32 (i8*, ...) @printf(i8* getelementptr inbounds ([7 x i8], [7 x i8]* @.str.1, i64 0, i64 0), i32 %86, i32 %91)
  store i32 1, i32* %12, align 4
  br label %93

93:                                               ; preds = %82, %70
  br label %94

94:                                               ; preds = %93
  %95 = load i32, i32* %9, align 4
  %96 = add nsw i32 %95, 1
  store i32 %96, i32* %9, align 4
  br label %66

97:                                               ; preds = %66
  %98 = load i32, i32* %12, align 4
  %99 = icmp eq i32 %98, 0
  br i1 %99, label %100, label %102

100:                                              ; preds = %97
  %101 = call i32 (i8*, ...) @printf(i8* getelementptr inbounds ([7 x i8], [7 x i8]* @.str.2, i64 0, i64 0))
  br label %102

102:                                              ; preds = %100, %97
  ret i32 0
}

declare dso_local i32 @__isoc99_scanf(i8*, ...) #1

declare dso_local i32 @printf(i8*, ...) #1


!llvm.module.flags = !{!0}
!llvm.ident = !{!1}

!0 = !{i32 1, !"wchar_size", i32 4}
!1 = !{!"clang version 10.0.0-4ubuntu1 "}
